; Function Attrs: mustprogress uwtable
define void @_ZN6casadi4Dple15get_sparsity_inEx(ptr dead_on_unwind noalias writable sret(%"class.casadi::Sparsity") align 8 %0, ptr noundef nonnull align 8 dereferenceable(1360) %1, i64 noundef %2) unnamed_addr #3 align 2 {
  %4 = trunc i64 %2 to i32
  switch i32 %4, label %9 [
    i32 0, label %5
    i32 1, label %7
  ]

5:                                                ; preds = %3
  %6 = getelementptr inbounds i8, ptr %1, i64 1312
  tail call void @_ZN6casadi12SharedObjectC2ERKS0_(ptr noundef nonnull align 8 dereferenceable(8) %0, ptr noundef nonnull align 8 dereferenceable(8) %6)
  br label %10

7:                                                ; preds = %3
  %8 = getelementptr inbounds i8, ptr %1, i64 1320
  tail call void @_ZN6casadi12SharedObjectC2ERKS0_(ptr noundef nonnull align 8 dereferenceable(8) %0, ptr noundef nonnull align 8 dereferenceable(8) %8)
  br label %10

9:                                                ; preds = %3
  tail call void @_ZN6casadi8SparsityC1Ex(ptr noundef nonnull align 8 dereferenceable(8) %0, i64 noundef 0)
  br label %10

10:                                               ; preds = %9, %7, %5
  ret void
}